; Function Attrs: mustprogress null_pointer_is_valid sspstrong uwtable
define void @_ZN12FindLineEdit11setUseRegexEv(ptr noundef align 8 dereferenceable_or_null(41) initializes((40, 41)) %0) #0 align 2 {
  %2 = getelementptr inbounds nuw i8, ptr %0, i64 40
  store i8 1, ptr %2, align 8
  tail call void @_ZN12FindLineEdit12validateTextEv(ptr noundef align 8 dereferenceable_or_null(41) %0)
  %3 = load i8, ptr %2, align 8, !range !6, !noundef !7
  %4 = trunc nuw i8 %3 to i1
  tail call void @_ZN12FindLineEdit12useRegexFindEb(ptr noundef align 8 dereferenceable_or_null(41) %0, i1 noundef zeroext %4)
  ret void
}